; Function Attrs: mustprogress nofree norecurse nosync nounwind willreturn memory(argmem: write) uwtable
define void @_ZN10open_spiel14dots_and_boxes4MoveC2Ev(ptr nocapture noundef nonnull writeonly align 4 dereferenceable(20) %0) unnamed_addr #6 align 2 {
  store i32 0, ptr %0, align 4
  %2 = getelementptr inbounds nuw i8, ptr %0, i64 4
  store i32 0, ptr %2, align 4
  %3 = getelementptr inbounds nuw i8, ptr %0, i64 8
  store i32 1, ptr %3, align 4
  %4 = getelementptr inbounds nuw i8, ptr %0, i64 12
  store i32 0, ptr %4, align 4
  %5 = getelementptr inbounds nuw i8, ptr %0, i64 16
  store i32 0, ptr %5, align 4
  ret void
}